target datalayout = "e-m:e-p270:32:32-p271:32:32-p272:64:64-i64:64-i128:128-f80:128-n8:16:32:64-S128"
target triple = "x86_64-pc-linux-gnu"

%struct.CordRep = type { %struct.Generic, %union.ConcatOrFunc }
%struct.Generic = type { i8, i8, i8, i8, i64 }
%union.ConcatOrFunc = type { %struct.Concatenation }
%struct.Concatenation = type { ptr, ptr }

; Function Attrs: nounwind uwtable
define i64 @CORD_len(ptr noundef %0) #0 {
  %2 = alloca ptr, align 8
  store ptr %0, ptr %2, align 8, !tbaa !7
  %3 = load ptr, ptr %2, align 8, !tbaa !7
  %4 = icmp eq ptr %3, null
  br i1 %4, label %5, label %6

5:                                                ; preds = %1
  br label %21

6:                                                ; preds = %1
  %7 = load ptr, ptr %2, align 8, !tbaa !7
  %8 = load i8, ptr %7, align 1, !tbaa !17
  %9 = sext i8 %8 to i32
  %10 = icmp ne i32 %9, 0
  br i1 %10, label %11, label %14

11:                                               ; preds = %6
  %12 = load ptr, ptr %2, align 8, !tbaa !7
  %13 = call i64 @strlen(ptr noundef %12) #10
  br label %19

14:                                               ; preds = %6
  %15 = load ptr, ptr %2, align 8, !tbaa !7
  %16 = getelementptr inbounds nuw %struct.CordRep, ptr %15, i32 0, i32 0
  %17 = getelementptr inbounds nuw %struct.Generic, ptr %16, i32 0, i32 4
  %18 = load i64, ptr %17, align 8, !tbaa !24
  br label %19

19:                                               ; preds = %14, %11
  %20 = phi i64 [ %13, %11 ], [ %18, %14 ]
  br label %21

21:                                               ; preds = %19, %5
  %22 = phi i64 [ 0, %5 ], [ %20, %19 ]
  ret i64 %22
}

; Function Attrs: nounwind uwtable
define i32 @CORD_riter(ptr noundef %0, ptr noundef %1, ptr noundef %2) #0 {
  %4 = alloca i32, align 4
  %5 = alloca ptr, align 8
  %6 = alloca ptr, align 8
  %7 = alloca ptr, align 8
  %8 = alloca i64, align 8
  %9 = alloca i32, align 4
  store ptr %0, ptr %5, align 8, !tbaa !7
  store ptr %1, ptr %6, align 8, !tbaa !3
  store ptr %2, ptr %7, align 8, !tbaa !3
  call void @llvm.lifetime.start.p0(i64 8, ptr %8) #9
  %10 = load ptr, ptr %5, align 8, !tbaa !7
  %11 = call i64 @CORD_len(ptr noundef %10)
  store i64 %11, ptr %8, align 8, !tbaa !13
  %12 = load i64, ptr %8, align 8, !tbaa !13
  %13 = icmp eq i64 0, %12
  br i1 %13, label %14, label %15

14:                                               ; preds = %3
  store i32 0, ptr %4, align 4
  store i32 1, ptr %9, align 4
  br label %22

15:                                               ; preds = %3
  %16 = load ptr, ptr %5, align 8, !tbaa !7
  %17 = load i64, ptr %8, align 8, !tbaa !13
  %18 = sub i64 %17, 1
  %19 = load ptr, ptr %6, align 8, !tbaa !3
  %20 = load ptr, ptr %7, align 8, !tbaa !3
  %21 = call i32 @CORD_riter4(ptr noundef %16, i64 noundef %18, ptr noundef %19, ptr noundef %20)
  store i32 %21, ptr %4, align 4
  store i32 1, ptr %9, align 4
  br label %22

22:                                               ; preds = %15, %14
  call void @llvm.lifetime.end.p0(i64 8, ptr %8) #9
  %23 = load i32, ptr %4, align 4
  ret i32 %23
}