; Function Attrs: nounwind uwtable
define range(i32 0, 2) i32 @CORD_riter(ptr noundef %0, ptr noundef readonly captures(none) %1, ptr noundef %2) local_unnamed_addr #2 {
  %4 = icmp eq ptr %0, null
  br i1 %4, label %CORD_len.exit.thread, label %5

5:                                                ; preds = %3
  %6 = load i8, ptr %0, align 1, !tbaa !11
  %.not.i = icmp eq i8 %6, 0
  br i1 %.not.i, label %9, label %7

7:                                                ; preds = %5
  %8 = tail call i64 @strlen(ptr noundef nonnull readonly dereferenceable(1) %0) #18
  br label %CORD_len.exit

9:                                                ; preds = %5
  %10 = getelementptr inbounds nuw i8, ptr %0, i64 8
  %11 = load i64, ptr %10, align 8, !tbaa !17
  br label %CORD_len.exit

CORD_len.exit:                                    ; preds = %7, %9
  %12 = phi i64 [ %8, %7 ], [ %11, %9 ]
  %13 = icmp eq i64 %12, 0
  br i1 %13, label %CORD_len.exit.thread, label %14

14:                                               ; preds = %CORD_len.exit
  %15 = add i64 %12, -1
  %16 = tail call i32 @CORD_riter4(ptr noundef nonnull %0, i64 noundef %15, ptr noundef %1, ptr noundef %2)
  br label %CORD_len.exit.thread

CORD_len.exit.thread:                             ; preds = %3, %CORD_len.exit, %14
  %.0 = phi i32 [ %16, %14 ], [ 0, %CORD_len.exit ], [ 0, %3 ]
  ret i32 %.0
}